target datalayout = "e-m:e-p270:32:32-p271:32:32-p272:64:64-i64:64-i128:128-f80:128-n8:16:32:64-S128"
target triple = "x86_64-pc-linux-gnu"

%struct.CvSparseMat = type { i32, i32, ptr, i32, ptr, ptr, i32, i32, i32, [32 x i32] }
%struct.CvScalar = type { [4 x double] }

; Function Attrs: inlinehint mustprogress nounwind uwtable
define internal void @_ZL8cvScalarv(ptr dead_on_unwind noalias writable sret(%struct.CvScalar) align 8 %0) #6 {
  call void @llvm.memset.p0.i64(ptr align 8 %0, i8 0, i64 32, i1 false)
  %2 = getelementptr inbounds nuw %struct.CvScalar, ptr %0, i32 0, i32 0
  %3 = getelementptr inbounds [4 x double], ptr %2, i64 0, i64 3
  store double 0.000000e+00, ptr %3, align 8, !tbaa !156
  %4 = getelementptr inbounds nuw %struct.CvScalar, ptr %0, i32 0, i32 0
  %5 = getelementptr inbounds [4 x double], ptr %4, i64 0, i64 2
  store double 0.000000e+00, ptr %5, align 8, !tbaa !156
  %6 = getelementptr inbounds nuw %struct.CvScalar, ptr %0, i32 0, i32 0
  %7 = getelementptr inbounds [4 x double], ptr %6, i64 0, i64 1
  store double 0.000000e+00, ptr %7, align 8, !tbaa !156
  %8 = getelementptr inbounds nuw %struct.CvScalar, ptr %0, i32 0, i32 0
  %9 = getelementptr inbounds [4 x double], ptr %8, i64 0, i64 0
  store double 0.000000e+00, ptr %9, align 8, !tbaa !156
  ret void
}

; Function Attrs: mustprogress uwtable
define void @cvGet3D(ptr dead_on_unwind noalias writable sret(%struct.CvScalar) align 8 %0, ptr noundef %1, i32 noundef %2, i32 noundef %3, i32 noundef %4) #0 {
  %6 = alloca ptr, align 8
  %7 = alloca i32, align 4
  %8 = alloca i32, align 4
  %9 = alloca i32, align 4
  %10 = alloca i32, align 4
  %11 = alloca ptr, align 8
  %12 = alloca [3 x i32], align 4
  store ptr %1, ptr %6, align 8, !tbaa !3
  store i32 %2, ptr %7, align 4, !tbaa !7
  store i32 %3, ptr %8, align 4, !tbaa !7
  store i32 %4, ptr %9, align 4, !tbaa !7
  call void @_ZL8cvScalarv(ptr dead_on_unwind writable sret(%struct.CvScalar) align 8 %0)
  call void @llvm.lifetime.start.p0(i64 4, ptr %10) #16
  store i32 0, ptr %10, align 4, !tbaa !7
  call void @llvm.lifetime.start.p0(i64 8, ptr %11) #16
  %13 = load ptr, ptr %6, align 8, !tbaa !3
  %14 = icmp ne ptr %13, null
  br i1 %14, label %15, label %21

15:                                               ; preds = %5
  %16 = load ptr, ptr %6, align 8, !tbaa !3
  %17 = getelementptr inbounds nuw %struct.CvSparseMat, ptr %16, i32 0, i32 0
  %18 = load i32, ptr %17, align 8, !tbaa !97
  %19 = and i32 %18, -65536
  %20 = icmp eq i32 %19, 1111752704
  br i1 %20, label %27, label %21

21:                                               ; preds = %15, %5
  %22 = load ptr, ptr %6, align 8, !tbaa !3
  %23 = load i32, ptr %7, align 4, !tbaa !7
  %24 = load i32, ptr %8, align 4, !tbaa !7
  %25 = load i32, ptr %9, align 4, !tbaa !7
  %26 = call ptr @cvPtr3D(ptr noundef %22, i32 noundef %23, i32 noundef %24, i32 noundef %25, ptr noundef %10)
  store ptr %26, ptr %11, align 8, !tbaa !19
  br label %36

27:                                               ; preds = %15
  call void @llvm.lifetime.start.p0(i64 12, ptr %12) #16
  %28 = load i32, ptr %7, align 4, !tbaa !7
  store i32 %28, ptr %12, align 4, !tbaa !7
  %29 = getelementptr inbounds i32, ptr %12, i64 1
  %30 = load i32, ptr %8, align 4, !tbaa !7
  store i32 %30, ptr %29, align 4, !tbaa !7
  %31 = getelementptr inbounds i32, ptr %12, i64 2
  %32 = load i32, ptr %9, align 4, !tbaa !7
  store i32 %32, ptr %31, align 4, !tbaa !7
  %33 = load ptr, ptr %6, align 8, !tbaa !3
  %34 = getelementptr inbounds [3 x i32], ptr %12, i64 0, i64 0
  %35 = call noundef ptr @_ZL13icvGetNodePtrP11CvSparseMatPKiPiiPj(ptr noundef %33, ptr noundef %34, ptr noundef %10, i32 noundef 0, ptr noundef null)
  store ptr %35, ptr %11, align 8, !tbaa !19
  call void @llvm.lifetime.end.p0(i64 12, ptr %12) #16
  br label %36

36:                                               ; preds = %27, %21
  %37 = load ptr, ptr %11, align 8, !tbaa !19
  %38 = icmp ne ptr %37, null
  br i1 %38, label %39, label %42

39:                                               ; preds = %36
  %40 = load ptr, ptr %11, align 8, !tbaa !19
  %41 = load i32, ptr %10, align 4, !tbaa !7
  call void @cvRawDataToScalar(ptr noundef %40, i32 noundef %41, ptr noundef %0)
  br label %42

42:                                               ; preds = %39, %36
  call void @llvm.lifetime.end.p0(i64 8, ptr %11) #16
  call void @llvm.lifetime.end.p0(i64 4, ptr %10) #16
  ret void
}