; Function Attrs: mustprogress uwtable
define void @cvGet3D(ptr dead_on_unwind noalias writable sret(%struct.CvScalar) align 8 initializes((0, 32)) %0, ptr noundef %1, i32 noundef %2, i32 noundef %3, i32 noundef %4) local_unnamed_addr #0 personality ptr @__gxx_personality_v0 {
  %6 = alloca i64, align 8
  %7 = alloca %"class.std::__cxx11::basic_string", align 8
  %8 = alloca i32, align 4
  %9 = alloca [3 x i32], align 4
  tail call void @llvm.memset.p0.i64(ptr noundef nonnull align 8 dereferenceable(32) %0, i8 0, i64 32, i1 false), !alias.scope !170
  call void @llvm.lifetime.start.p0(i64 4, ptr nonnull %8) #12
  store i32 0, ptr %8, align 4, !tbaa !26
  %.not = icmp eq ptr %1, null
  br i1 %.not, label %.split, label %22

.split:                                           ; preds = %5
  call void @llvm.lifetime.start.p0(i64 32, ptr nonnull %7) #12
  %10 = getelementptr inbounds nuw i8, ptr %7, i64 16
  store ptr %10, ptr %7, align 8, !tbaa !168
  call void @llvm.lifetime.start.p0(i64 8, ptr nonnull %6) #12
  store i64 38, ptr %6, align 8, !tbaa !169
  %11 = call noundef ptr @_ZNSt7__cxx1112basic_stringIcSt11char_traitsIcESaIcEE9_M_createERmm(ptr noundef nonnull align 8 dereferenceable(32) %7, ptr noundef nonnull align 8 dereferenceable(8) %6, i64 noundef 0)
  store ptr %11, ptr %7, align 8, !tbaa !3
  %12 = load i64, ptr %6, align 8, !tbaa !169
  store i64 %12, ptr %10, align 8, !tbaa !23
  call void @llvm.memcpy.p0.p0.i64(ptr noundef nonnull align 1 dereferenceable(38) %11, ptr noundef nonnull align 1 dereferenceable(38) @.str.34, i64 38, i1 false)
  %13 = getelementptr inbounds nuw i8, ptr %7, i64 8
  store i64 %12, ptr %13, align 8, !tbaa !11
  %14 = getelementptr inbounds nuw i8, ptr %11, i64 %12
  store i8 0, ptr %14, align 1, !tbaa !23
  call void @llvm.lifetime.end.p0(i64 8, ptr nonnull %6) #12
  invoke void @_ZN2cv5errorEiRKNSt7__cxx1112basic_stringIcSt11char_traitsIcESaIcEEEPKcS9_i(i32 noundef -5, ptr noundef nonnull align 8 dereferenceable(32) %7, ptr noundef nonnull @__func__.cvPtr3D, ptr noundef nonnull @.str.1, i32 noundef 1875) #13
          to label %15 unwind label %16

15:                                               ; preds = %.split
  unreachable

16:                                               ; preds = %.split
  %17 = landingpad { ptr, i32 }
          cleanup
  %18 = load ptr, ptr %7, align 8, !tbaa !3
  %19 = icmp eq ptr %18, %10
  br i1 %19, label %_ZNKSt7__cxx1112basic_stringIcSt11char_traitsIcESaIcEE11_M_is_localEv.exit.thread.i.i52.i, label %_ZNKSt7__cxx1112basic_stringIcSt11char_traitsIcESaIcEE11_M_is_localEv.exit.i.i51.i

_ZNKSt7__cxx1112basic_stringIcSt11char_traitsIcESaIcEE11_M_is_localEv.exit.thread.i.i52.i: ; preds = %16
  %20 = load i64, ptr %13, align 8, !tbaa !11
  %21 = icmp ult i64 %20, 16
  call void @llvm.assume(i1 %21)
  br label %_ZNSt7__cxx1112basic_stringIcSt11char_traitsIcESaIcEED2Ev.exit53.i

_ZNKSt7__cxx1112basic_stringIcSt11char_traitsIcESaIcEE11_M_is_localEv.exit.i.i51.i: ; preds = %16
  call void @_ZdlPv(ptr noundef %18) #14
  br label %_ZNSt7__cxx1112basic_stringIcSt11char_traitsIcESaIcEED2Ev.exit53.i

_ZNSt7__cxx1112basic_stringIcSt11char_traitsIcESaIcEED2Ev.exit53.i: ; preds = %_ZNKSt7__cxx1112basic_stringIcSt11char_traitsIcESaIcEE11_M_is_localEv.exit.i.i51.i, %_ZNKSt7__cxx1112basic_stringIcSt11char_traitsIcESaIcEE11_M_is_localEv.exit.thread.i.i52.i
  call void @llvm.lifetime.end.p0(i64 32, ptr nonnull %7) #12
  resume { ptr, i32 } %17

22:                                               ; preds = %5
  %23 = load i32, ptr %1, align 8, !tbaa !80
  %24 = and i32 %23, -65536
  %25 = icmp eq i32 %24, 1111752704
  br i1 %25, label %27, label %.split11

.split11:                                         ; preds = %22
  %26 = call ptr @cvPtr3D(ptr noundef nonnull %1, i32 noundef %2, i32 noundef %3, i32 noundef %4, ptr noundef nonnull %8)
  br label %31

27:                                               ; preds = %22
  call void @llvm.lifetime.start.p0(i64 12, ptr nonnull %9) #12
  store i32 %2, ptr %9, align 4, !tbaa !26
  %28 = getelementptr inbounds nuw i8, ptr %9, i64 4
  store i32 %3, ptr %28, align 4, !tbaa !26
  %29 = getelementptr inbounds nuw i8, ptr %9, i64 8
  store i32 %4, ptr %29, align 4, !tbaa !26
  %30 = call fastcc noundef ptr @_ZL13icvGetNodePtrP11CvSparseMatPKiPiiPj(ptr noundef %1, ptr noundef nonnull %9, ptr noundef nonnull %8, i32 noundef 0, ptr noundef null)
  call void @llvm.lifetime.end.p0(i64 12, ptr nonnull %9) #12
  br label %31

31:                                               ; preds = %.split11, %27
  %.0 = phi ptr [ %30, %27 ], [ %26, %.split11 ]
  %.not13 = icmp eq ptr %.0, null
  br i1 %.not13, label %34, label %32

32:                                               ; preds = %31
  %33 = load i32, ptr %8, align 4, !tbaa !26
  call void @cvRawDataToScalar(ptr noundef nonnull %.0, i32 noundef %33, ptr noundef nonnull %0)
  br label %34

34:                                               ; preds = %32, %31
  call void @llvm.lifetime.end.p0(i64 4, ptr nonnull %8) #12
  ret void
}